ccopy_reg
_reconstructor
p1
(csklearn.svm.classes
SVC
p2
c__builtin__
object
p3
NtRp4
(dp5
S'_impl'
p6
S'c_svc'
p7
sS'kernel'
p8
S'rbf'
p9
sS'C'
F10
sS'verbose'
p10
I00
sS'probability'
p11
I00
sS'coef0'
p12
F0
sS'epsilon'
p13
F0
sS'max_iter'
p14
I-1
sS'decision_function_shape'
p15
NsS'random_state'
p16
NsS'_sklearn_version'
p17
S'0.18.2'
p18
sS'tol'
p19
F0.001
sS'cache_size'
p20
I200
sS'class_weight'
p21
NsS'shrinking'
p22
I01
sS'nu'
p23
F0
sS'gamma'
p24
F0.001
sS'degree'
p25
I3
sb.